; Function Attrs: mustprogress uwtable
define hidden void @_ZN5ceres8internal17DenseSparseMatrixC2Eii(ptr noundef nonnull align 8 dereferenceable(32) initializes((0, 32)) %0, i32 noundef %1, i32 noundef %2) unnamed_addr #0 align 2 personality ptr @__gxx_personality_v0 {
  store ptr getelementptr inbounds nuw inrange(-16, 184) (i8, ptr @_ZTVN5ceres8internal17DenseSparseMatrixE, i64 16), ptr %0, align 8, !tbaa !3
  %4 = getelementptr inbounds nuw i8, ptr %0, i64 8
  tail call void @llvm.memset.p0.i64(ptr noundef nonnull align 8 dereferenceable(24) %4, i8 0, i64 24, i1 false)
  %5 = sext i32 %1 to i64
  %6 = sext i32 %2 to i64
  %7 = icmp eq i32 %1, 0
  %8 = icmp eq i32 %2, 0
  %or.cond.i.i.i.i = or i1 %7, %8
  br i1 %or.cond.i.i.i.i, label %_ZN5Eigen15PlainObjectBaseINS_6MatrixIdLin1ELin1ELi1ELin1ELin1EEEE6resizeEll.exit.i.i, label %9

9:                                                ; preds = %3
  %10 = sdiv i64 9223372036854775807, %6
  %11 = icmp slt i64 %10, %5
  br i1 %11, label %12, label %_ZN5Eigen15PlainObjectBaseINS_6MatrixIdLin1ELin1ELi1ELin1ELin1EEEE6resizeEll.exit.i.i

12:                                               ; preds = %9
  %13 = tail call ptr @__cxa_allocate_exception(i64 8) #22
  store ptr getelementptr inbounds nuw inrange(-16, 24) (i8, ptr @_ZTVSt9bad_alloc, i64 16), ptr %13, align 8, !tbaa !3
  invoke void @__cxa_throw(ptr nonnull %13, ptr nonnull @_ZTISt9bad_alloc, ptr nonnull @_ZNSt9bad_allocD1Ev) #23
          to label %.noexc.i unwind label %.body

.noexc.i:                                         ; preds = %12
  unreachable

_ZN5Eigen15PlainObjectBaseINS_6MatrixIdLin1ELin1ELi1ELin1ELin1EEEE6resizeEll.exit.i.i: ; preds = %9, %3
  %14 = mul nsw i64 %6, %5
  invoke void @_ZN5Eigen12DenseStorageIdLin1ELin1ELin1ELi1EE6resizeElll(ptr noundef nonnull align 8 dereferenceable(24) %4, i64 noundef %14, i64 noundef %5, i64 noundef %6)
          to label %_ZN5Eigen6MatrixIdLin1ELin1ELi1ELin1ELin1EEC2IiiEERKT_RKT0_.exit unwind label %.body

.body:                                            ; preds = %_ZN5Eigen15PlainObjectBaseINS_6MatrixIdLin1ELin1ELi1ELin1ELin1EEEE6resizeEll.exit.i.i, %12
  %15 = landingpad { ptr, i32 }
          cleanup
  %16 = load ptr, ptr %4, align 8, !tbaa !6
  tail call void @free(ptr noundef %16) #22
  tail call void @_ZN5ceres8internal12SparseMatrixD2Ev(ptr noundef nonnull align 8 dereferenceable(8) %0) #22
  resume { ptr, i32 } %15

_ZN5Eigen6MatrixIdLin1ELin1ELi1ELin1ELin1EEC2IiiEERKT_RKT0_.exit: ; preds = %_ZN5Eigen15PlainObjectBaseINS_6MatrixIdLin1ELin1ELi1ELin1ELin1EEEE6resizeEll.exit.i.i
  ret void
}